; Function Attrs: mustprogress uwtable
define hidden void @_ZN3ue222ComponentCondReference14addAlternationEv(ptr noundef nonnull align 8 dereferenceable(137) %this) unnamed_addr #0 align 2 personality ptr @__gxx_personality_v0 {
entry:
  %agg.tmp = alloca %"class.std::__cxx11::basic_string", align 8
  %ref.tmp = alloca %"class.std::allocator.2", align 1
  %agg.tmp12 = alloca %"class.std::__cxx11::basic_string", align 8
  %ref.tmp13 = alloca %"class.std::allocator.2", align 1
  %alternation = getelementptr inbounds i8, ptr %this, i64 40
  %0 = load ptr, ptr %alternation, align 8
  %cmp.i.not = icmp eq ptr %0, null
  br i1 %cmp.i.not, label %if.end26, label %if.then

if.then:                                          ; preds = %entry
  %ref_name = getelementptr inbounds i8, ptr %this, i64 96
  %call.i = tail call noundef i32 @_ZNKSt7__cxx1112basic_stringIcSt11char_traitsIcESaIcEE7compareEPKc(ptr noundef nonnull align 8 dereferenceable(32) %ref_name, ptr noundef nonnull @.str) #13
  %cmp.i5 = icmp eq i32 %call.i, 0
  br i1 %cmp.i5, label %if.then3, label %if.end

if.then3:                                         ; preds = %if.then
  %exception = tail call ptr @__cxa_allocate_exception(i64 56) #13
  call void @_ZNSaIcEC1Ev(ptr noundef nonnull align 1 dereferenceable(1) %ref.tmp) #13
  invoke void @_ZNSt7__cxx1112basic_stringIcSt11char_traitsIcESaIcEEC2IS3_EEPKcRKS3_(ptr noundef nonnull align 8 dereferenceable(32) %agg.tmp, ptr noundef nonnull @.str.1, ptr noundef nonnull align 1 dereferenceable(1) %ref.tmp)
          to label %invoke.cont unwind label %ehcleanup.thread

invoke.cont:                                      ; preds = %if.then3
  invoke void @_ZN3ue217LocatedParseErrorC2ENSt7__cxx1112basic_stringIcSt11char_traitsIcESaIcEEE(ptr noundef nonnull align 8 dereferenceable(49) %exception, ptr noundef nonnull %agg.tmp)
          to label %invoke.cont5 unwind label %ehcleanup

invoke.cont5:                                     ; preds = %invoke.cont
  invoke void @__cxa_throw(ptr nonnull %exception, ptr nonnull @_ZTIN3ue217LocatedParseErrorE, ptr nonnull @_ZN3ue217LocatedParseErrorD1Ev) #16
          to label %unreachable unwind label %ehcleanup

ehcleanup.thread:                                 ; preds = %if.then3
  %1 = landingpad { ptr, i32 }
          cleanup
  br label %eh.resume.sink.split.sink.split

ehcleanup:                                        ; preds = %invoke.cont, %invoke.cont5
  %cleanup.isactive.0 = phi i1 [ false, %invoke.cont5 ], [ true, %invoke.cont ]
  %2 = landingpad { ptr, i32 }
          cleanup
  call void @_ZNSt7__cxx1112basic_stringIcSt11char_traitsIcESaIcEED1Ev(ptr noundef nonnull align 8 dereferenceable(32) %agg.tmp) #13
  call void @_ZNSaIcED1Ev(ptr noundef nonnull align 1 dereferenceable(1) %ref.tmp) #13
  br i1 %cleanup.isactive.0, label %eh.resume.sink.split, label %eh.resume

if.end:                                           ; preds = %if.then
  %3 = load ptr, ptr %alternation, align 8
  %children.i = getelementptr inbounds i8, ptr %3, i64 16
  %_M_finish.i.i = getelementptr inbounds i8, ptr %3, i64 24
  %4 = load ptr, ptr %_M_finish.i.i, align 8
  %5 = load ptr, ptr %children.i, align 8
  %sub.ptr.lhs.cast.i.i = ptrtoint ptr %4 to i64
  %sub.ptr.rhs.cast.i.i = ptrtoint ptr %5 to i64
  %sub.ptr.sub.i.i = sub i64 %sub.ptr.lhs.cast.i.i, %sub.ptr.rhs.cast.i.i
  %cmp = icmp ugt i64 %sub.ptr.sub.i.i, 8
  br i1 %cmp, label %if.then10, label %if.end26

if.then10:                                        ; preds = %if.end
  %exception11 = tail call ptr @__cxa_allocate_exception(i64 56) #13
  call void @_ZNSaIcEC1Ev(ptr noundef nonnull align 1 dereferenceable(1) %ref.tmp13) #13
  invoke void @_ZNSt7__cxx1112basic_stringIcSt11char_traitsIcESaIcEEC2IS3_EEPKcRKS3_(ptr noundef nonnull align 8 dereferenceable(32) %agg.tmp12, ptr noundef nonnull @.str.2, ptr noundef nonnull align 1 dereferenceable(1) %ref.tmp13)
          to label %invoke.cont15 unwind label %ehcleanup20.thread

invoke.cont15:                                    ; preds = %if.then10
  invoke void @_ZN3ue217LocatedParseErrorC2ENSt7__cxx1112basic_stringIcSt11char_traitsIcESaIcEEE(ptr noundef nonnull align 8 dereferenceable(49) %exception11, ptr noundef nonnull %agg.tmp12)
          to label %invoke.cont17 unwind label %ehcleanup20

invoke.cont17:                                    ; preds = %invoke.cont15
  invoke void @__cxa_throw(ptr nonnull %exception11, ptr nonnull @_ZTIN3ue217LocatedParseErrorE, ptr nonnull @_ZN3ue217LocatedParseErrorD1Ev) #16
          to label %unreachable unwind label %ehcleanup20

ehcleanup20.thread:                               ; preds = %if.then10
  %6 = landingpad { ptr, i32 }
          cleanup
  br label %eh.resume.sink.split.sink.split

ehcleanup20:                                      ; preds = %invoke.cont15, %invoke.cont17
  %cleanup.isactive18.0 = phi i1 [ false, %invoke.cont17 ], [ true, %invoke.cont15 ]
  %7 = landingpad { ptr, i32 }
          cleanup
  call void @_ZNSt7__cxx1112basic_stringIcSt11char_traitsIcESaIcEED1Ev(ptr noundef nonnull align 8 dereferenceable(32) %agg.tmp12) #13
  call void @_ZNSaIcED1Ev(ptr noundef nonnull align 1 dereferenceable(1) %ref.tmp13) #13
  br i1 %cleanup.isactive18.0, label %eh.resume.sink.split, label %eh.resume

if.end26:                                         ; preds = %if.end, %entry
  %hasBothBranches = getelementptr inbounds i8, ptr %this, i64 136
  store i8 1, ptr %hasBothBranches, align 8
  tail call void @_ZN3ue217ComponentSequence14addAlternationEv(ptr noundef nonnull align 8 dereferenceable(88) %this)
  ret void

eh.resume.sink.split.sink.split:                  ; preds = %ehcleanup.thread, %ehcleanup20.thread
  %ref.tmp13.sink = phi ptr [ %ref.tmp13, %ehcleanup20.thread ], [ %ref.tmp, %ehcleanup.thread ]
  %exception11.sink.ph = phi ptr [ %exception11, %ehcleanup20.thread ], [ %exception, %ehcleanup.thread ]
  %.pn2.pn.ph.ph = phi { ptr, i32 } [ %6, %ehcleanup20.thread ], [ %1, %ehcleanup.thread ]
  call void @_ZNSaIcED1Ev(ptr noundef nonnull align 1 dereferenceable(1) %ref.tmp13.sink) #13
  br label %eh.resume.sink.split

eh.resume.sink.split:                             ; preds = %eh.resume.sink.split.sink.split, %ehcleanup20, %ehcleanup
  %exception11.sink = phi ptr [ %exception, %ehcleanup ], [ %exception11, %ehcleanup20 ], [ %exception11.sink.ph, %eh.resume.sink.split.sink.split ]
  %.pn2.pn.ph = phi { ptr, i32 } [ %2, %ehcleanup ], [ %7, %ehcleanup20 ], [ %.pn2.pn.ph.ph, %eh.resume.sink.split.sink.split ]
  call void @__cxa_free_exception(ptr %exception11.sink) #13
  br label %eh.resume

eh.resume:                                        ; preds = %eh.resume.sink.split, %ehcleanup20, %ehcleanup
  %.pn2.pn = phi { ptr, i32 } [ %2, %ehcleanup ], [ %7, %ehcleanup20 ], [ %.pn2.pn.ph, %eh.resume.sink.split ]
  resume { ptr, i32 } %.pn2.pn

unreachable:                                      ; preds = %invoke.cont17, %invoke.cont5
  unreachable
}